target datalayout = "e-m:e-p270:32:32-p271:32:32-p272:64:64-i64:64-i128:128-f80:128-n8:16:32:64-S128"
target triple = "x86_64-unknown-linux-gnu"

%class.btPoint2PointConstraint = type { %class.btTypedConstraint, [3 x %class.btJacobianEntry], %class.btVector3, %class.btVector3, i32, float, float, i8, %struct.btConstraintSetting }
%class.btTypedConstraint = type { ptr, %struct.btTypedObject, i32, %union.anon.0, float, i8, i8, i32, ptr, ptr, float, float, ptr }
%struct.btTypedObject = type { i32 }
%union.anon.0 = type { ptr }
%class.btJacobianEntry = type { %class.btVector3, %class.btVector3, %class.btVector3, %class.btVector3, %class.btVector3, float }
%class.btVector3 = type { [4 x float] }
%struct.btConstraintSetting = type { float, float, float }

; Function Attrs: mustprogress nounwind uwtable
define dso_local noundef float @_ZNK23btPoint2PointConstraint8getParamEii(ptr noundef nonnull align 8 dereferenceable(384) %this, i32 noundef %num, i32 noundef %axis) unnamed_addr #1 align 2 {
entry:
  %this.addr = alloca ptr, align 8
  %num.addr = alloca i32, align 4
  %axis.addr = alloca i32, align 4
  %retVal = alloca float, align 4
  store ptr %this, ptr %this.addr, align 8
  store i32 %num, ptr %num.addr, align 4
  store i32 %axis, ptr %axis.addr, align 4
  %this1 = load ptr, ptr %this.addr, align 8
  store float 0x47EFFFFFE0000000, ptr %retVal, align 4
  %0 = load i32, ptr %axis.addr, align 4
  %cmp = icmp ne i32 %0, -1
  br i1 %cmp, label %if.then, label %if.else

if.then:                                          ; preds = %entry
  br label %if.end

if.else:                                          ; preds = %entry
  %1 = load i32, ptr %num.addr, align 4
  switch i32 %1, label %sw.default [
    i32 1, label %sw.bb
    i32 2, label %sw.bb
    i32 3, label %sw.bb2
    i32 4, label %sw.bb2
  ]

sw.bb:                                            ; preds = %if.else, %if.else
  %m_erp = getelementptr inbounds %class.btPoint2PointConstraint, ptr %this1, i32 0, i32 5
  %2 = load float, ptr %m_erp, align 8
  store float %2, ptr %retVal, align 4
  br label %sw.epilog

sw.bb2:                                           ; preds = %if.else, %if.else
  %m_cfm = getelementptr inbounds %class.btPoint2PointConstraint, ptr %this1, i32 0, i32 6
  %3 = load float, ptr %m_cfm, align 4
  store float %3, ptr %retVal, align 4
  br label %sw.epilog

sw.default:                                       ; preds = %if.else
  br label %sw.epilog

sw.epilog:                                        ; preds = %sw.default, %sw.bb2, %sw.bb
  br label %if.end

if.end:                                           ; preds = %sw.epilog, %if.then
  %4 = load float, ptr %retVal, align 4
  ret float %4
}