; Function Attrs: mustprogress nofree norecurse nosync nounwind willreturn memory(argmem: read) uwtable
define dso_local noundef float @_ZNK23btPoint2PointConstraint8getParamEii(ptr nocapture noundef nonnull readonly align 8 dereferenceable(384) %this, i32 noundef %num, i32 noundef %axis) unnamed_addr #10 align 2 {
entry:
  %cmp.not = icmp eq i32 %axis, -1
  br i1 %cmp.not, label %if.else, label %if.end

if.else:                                          ; preds = %entry
  switch i32 %num, label %if.end [
    i32 1, label %sw.bb
    i32 2, label %sw.bb
    i32 3, label %sw.bb2
    i32 4, label %sw.bb2
  ]

sw.bb:                                            ; preds = %if.else, %if.else
  %m_erp = getelementptr inbounds i8, ptr %this, i64 360
  %0 = load float, ptr %m_erp, align 8
  br label %if.end

sw.bb2:                                           ; preds = %if.else, %if.else
  %m_cfm = getelementptr inbounds i8, ptr %this, i64 364
  %1 = load float, ptr %m_cfm, align 4
  br label %if.end

if.end:                                           ; preds = %sw.bb, %sw.bb2, %if.else, %entry
  %retVal.0 = phi float [ 0x47EFFFFFE0000000, %entry ], [ 0x47EFFFFFE0000000, %if.else ], [ %1, %sw.bb2 ], [ %0, %sw.bb ]
  ret float %retVal.0
}